; Function Attrs: mustprogress null_pointer_is_valid sspstrong uwtable
define internal void @_ZL13io_graph_initPKcPv(ptr readnone captures(none) %0, ptr readnone captures(none) %1) #2 personality ptr @__gxx_personality_v0 {
  %3 = alloca %class.QString, align 8
  %4 = alloca %class.QString, align 8
  %5 = load ptr, ptr @mainApp, align 8
  call void @llvm.lifetime.start.p0(i64 24, ptr nonnull %4) #33
  call void @llvm.lifetime.start.p0(i64 24, ptr nonnull %3) #33
  call void @_ZN7QString8fromUtf8E14QByteArrayView(ptr dead_on_unwind nonnull writable sret(%class.QString) align 8 %3, i64 7, ptr nonnull @.str.302)
  %6 = load ptr, ptr %3, align 8
  store ptr %6, ptr %4, align 8
  %7 = getelementptr inbounds nuw i8, ptr %4, i64 8
  %8 = getelementptr inbounds nuw i8, ptr %3, i64 8
  %9 = load ptr, ptr %8, align 8
  store ptr %9, ptr %7, align 8
  %10 = getelementptr inbounds nuw i8, ptr %4, i64 16
  %11 = getelementptr inbounds nuw i8, ptr %3, i64 16
  %12 = load i64, ptr %11, align 8
  store i64 %12, ptr %10, align 8
  call void @llvm.lifetime.end.p0(i64 24, ptr nonnull %3) #33
  invoke void @_ZN15MainApplication21emitStatCommandSignalERK7QStringPKcPv(ptr noundef align 8 dereferenceable_or_null(216) %5, ptr noundef nonnull align 8 dereferenceable(24) %4, ptr noundef null, ptr noundef null)
          to label %13 unwind label %18

13:                                               ; preds = %2
  %14 = load ptr, ptr %4, align 8
  %.not.i.i.i = icmp eq ptr %14, null
  br i1 %.not.i.i.i, label %_ZN7QStringD2Ev.exit, label %_ZN17QArrayDataPointerIDsE5derefEv.exit.i.i

_ZN17QArrayDataPointerIDsE5derefEv.exit.i.i:      ; preds = %13
  %15 = atomicrmw sub ptr %14, i32 1 seq_cst, align 4
  %.not.i.i = icmp eq i32 %15, 1
  br i1 %.not.i.i, label %16, label %_ZN7QStringD2Ev.exit

16:                                               ; preds = %_ZN17QArrayDataPointerIDsE5derefEv.exit.i.i
  %17 = load ptr, ptr %4, align 8
  call void @_ZN10QArrayData10deallocateEPS_xx(ptr noundef %17, i64 noundef 2, i64 noundef 8) #33
  br label %_ZN7QStringD2Ev.exit

_ZN7QStringD2Ev.exit:                             ; preds = %13, %_ZN17QArrayDataPointerIDsE5derefEv.exit.i.i, %16
  call void @llvm.lifetime.end.p0(i64 24, ptr nonnull %4) #33
  ret void

18:                                               ; preds = %2
  %19 = landingpad { ptr, i32 }
          cleanup
  %20 = load ptr, ptr %4, align 8
  %.not.i.i.i1 = icmp eq ptr %20, null
  br i1 %.not.i.i.i1, label %_ZN7QStringD2Ev.exit4, label %_ZN17QArrayDataPointerIDsE5derefEv.exit.i.i2

_ZN17QArrayDataPointerIDsE5derefEv.exit.i.i2:     ; preds = %18
  %21 = atomicrmw sub ptr %20, i32 1 seq_cst, align 4
  %.not.i.i3 = icmp eq i32 %21, 1
  br i1 %.not.i.i3, label %22, label %_ZN7QStringD2Ev.exit4

22:                                               ; preds = %_ZN17QArrayDataPointerIDsE5derefEv.exit.i.i2
  %23 = load ptr, ptr %4, align 8
  call void @_ZN10QArrayData10deallocateEPS_xx(ptr noundef %23, i64 noundef 2, i64 noundef 8) #33
  br label %_ZN7QStringD2Ev.exit4

_ZN7QStringD2Ev.exit4:                            ; preds = %18, %_ZN17QArrayDataPointerIDsE5derefEv.exit.i.i2, %22
  call void @llvm.lifetime.end.p0(i64 24, ptr nonnull %4) #33
  resume { ptr, i32 } %19
}